; Function Attrs: nofree nosync nounwind memory(readwrite, inaccessiblemem: write) uwtable
define i32 @Bac_ManClpObjNum(ptr noundef readonly captures(none) %0) local_unnamed_addr #10 {
  %2 = getelementptr i8, ptr %0, i64 36
  %.val = load i32, ptr %2, align 4, !tbaa !37
  %.not15 = icmp slt i32 %.val, 1
  br i1 %.not15, label %.critedge, label %Bac_ManNtk.exit.lr.ph

Bac_ManNtk.exit.lr.ph:                            ; preds = %1
  %3 = getelementptr inbounds nuw i8, ptr %0, i64 40
  %4 = load ptr, ptr %3, align 8, !tbaa !42
  %5 = add nuw i32 %.val, 1
  %wide.trip.count = zext i32 %5 to i64
  br label %Bac_ManNtk.exit

Bac_ManNtk.exit:                                  ; preds = %Bac_ManNtk.exit.lr.ph, %Bac_ManNtk.exit
  %indvars.iv = phi i64 [ 1, %Bac_ManNtk.exit.lr.ph ], [ %indvars.iv.next, %Bac_ManNtk.exit ]
  %6 = getelementptr inbounds nuw %struct.Bac_Ntk_t_, ptr %4, i64 %indvars.iv, i32 5
  store i32 -1, ptr %6, align 8, !tbaa !63
  %indvars.iv.next = add nuw nsw i64 %indvars.iv, 1
  %exitcond.not = icmp eq i64 %indvars.iv.next, %wide.trip.count
  br i1 %exitcond.not, label %.critedge, label %Bac_ManNtk.exit, !llvm.loop !67

.critedge:                                        ; preds = %Bac_ManNtk.exit, %1
  %7 = getelementptr inbounds nuw i8, ptr %0, i64 32
  %8 = load i32, ptr %7, align 8, !tbaa !68
  %9 = icmp sgt i32 %8, 0
  br i1 %9, label %Bac_ManNtkIsOk.exit.i.i, label %Bac_ManRoot.exit

Bac_ManNtkIsOk.exit.i.i:                          ; preds = %.critedge
  %.not4.i.i = icmp sle i32 %8, %.val
  tail call void @llvm.assume(i1 %.not4.i.i)
  %10 = getelementptr inbounds nuw i8, ptr %0, i64 40
  %11 = load ptr, ptr %10, align 8, !tbaa !42
  %12 = zext nneg i32 %8 to i64
  %13 = getelementptr inbounds nuw %struct.Bac_Ntk_t_, ptr %11, i64 %12
  %14 = getelementptr i8, ptr %13, i64 52
  %.val814 = load i32, ptr %14, align 4, !tbaa !22
  %15 = getelementptr i8, ptr %13, i64 36
  %.val713 = load i32, ptr %15, align 4, !tbaa !22
  %16 = add nsw i32 %.val713, %.val814
  br label %Bac_ManRoot.exit12

Bac_ManRoot.exit:                                 ; preds = %.critedge
  %.val7 = load i32, ptr inttoptr (i64 36 to ptr), align 4, !tbaa !22
  %.val8 = load i32, ptr inttoptr (i64 52 to ptr), align 4, !tbaa !22
  %17 = add nsw i32 %.val8, %.val7
  br label %Bac_ManRoot.exit12

Bac_ManRoot.exit12:                               ; preds = %Bac_ManRoot.exit, %Bac_ManNtkIsOk.exit.i.i
  %18 = phi i32 [ %16, %Bac_ManNtkIsOk.exit.i.i ], [ %17, %Bac_ManRoot.exit ]
  %19 = phi ptr [ %13, %Bac_ManNtkIsOk.exit.i.i ], [ null, %Bac_ManRoot.exit ]
  %20 = tail call i32 @Bac_ManClpObjNum_rec(ptr noundef %19)
  %21 = add nsw i32 %20, %18
  ret i32 %21
}